target datalayout = "e-m:e-p270:32:32-p271:32:32-p272:64:64-i64:64-i128:128-f80:128-n8:16:32:64-S128"
target triple = "x86_64-pc-linux-gnu"

%struct.LogicalTapeSet = type { ptr, ptr, i32, i64, i64, i64, i8, ptr, i64, i64, i8 }
%struct.LogicalTape = type { ptr, i8, i8, i8, i64, i64, i64, i64, ptr, i32, i32, i32, i32, ptr, i32, i32 }

@.str = private unnamed_addr constant [42 x i8] c"cannot create new tapes in leader process\00", align 1
@.str.1 = private unnamed_addr constant [10 x i8] c"logtape.c\00", align 1
@__func__.LogicalTapeCreate = private unnamed_addr constant [18 x i8] c"LogicalTapeCreate\00", align 1

; Function Attrs: nounwind uwtable
define internal ptr @ltsCreateTape(ptr noundef %0) #0 {
  %2 = alloca ptr, align 8
  %3 = alloca ptr, align 8
  store ptr %0, ptr %2, align 8
  call void @llvm.lifetime.start.p0(i64 8, ptr %3) #7
  %4 = call ptr @palloc(i64 noundef 88)
  store ptr %4, ptr %3, align 8
  %5 = load ptr, ptr %2, align 8
  %6 = load ptr, ptr %3, align 8
  %7 = getelementptr inbounds nuw %struct.LogicalTape, ptr %6, i32 0, i32 0
  store ptr %5, ptr %7, align 8
  %8 = load ptr, ptr %3, align 8
  %9 = getelementptr inbounds nuw %struct.LogicalTape, ptr %8, i32 0, i32 1
  store i8 1, ptr %9, align 8
  %10 = load ptr, ptr %3, align 8
  %11 = getelementptr inbounds nuw %struct.LogicalTape, ptr %10, i32 0, i32 2
  store i8 0, ptr %11, align 1
  %12 = load ptr, ptr %3, align 8
  %13 = getelementptr inbounds nuw %struct.LogicalTape, ptr %12, i32 0, i32 3
  store i8 0, ptr %13, align 2
  %14 = load ptr, ptr %3, align 8
  %15 = getelementptr inbounds nuw %struct.LogicalTape, ptr %14, i32 0, i32 4
  store i64 -1, ptr %15, align 8
  %16 = load ptr, ptr %3, align 8
  %17 = getelementptr inbounds nuw %struct.LogicalTape, ptr %16, i32 0, i32 5
  store i64 -1, ptr %17, align 8
  %18 = load ptr, ptr %3, align 8
  %19 = getelementptr inbounds nuw %struct.LogicalTape, ptr %18, i32 0, i32 6
  store i64 -1, ptr %19, align 8
  %20 = load ptr, ptr %3, align 8
  %21 = getelementptr inbounds nuw %struct.LogicalTape, ptr %20, i32 0, i32 7
  store i64 0, ptr %21, align 8
  %22 = load ptr, ptr %3, align 8
  %23 = getelementptr inbounds nuw %struct.LogicalTape, ptr %22, i32 0, i32 8
  store ptr null, ptr %23, align 8
  %24 = load ptr, ptr %3, align 8
  %25 = getelementptr inbounds nuw %struct.LogicalTape, ptr %24, i32 0, i32 9
  store i32 0, ptr %25, align 8
  %26 = load ptr, ptr %3, align 8
  %27 = getelementptr inbounds nuw %struct.LogicalTape, ptr %26, i32 0, i32 10
  store i32 1073741823, ptr %27, align 4
  %28 = load ptr, ptr %3, align 8
  %29 = getelementptr inbounds nuw %struct.LogicalTape, ptr %28, i32 0, i32 11
  store i32 0, ptr %29, align 8
  %30 = load ptr, ptr %3, align 8
  %31 = getelementptr inbounds nuw %struct.LogicalTape, ptr %30, i32 0, i32 12
  store i32 0, ptr %31, align 4
  %32 = load ptr, ptr %3, align 8
  %33 = getelementptr inbounds nuw %struct.LogicalTape, ptr %32, i32 0, i32 13
  store ptr null, ptr %33, align 8
  %34 = load ptr, ptr %3, align 8
  %35 = getelementptr inbounds nuw %struct.LogicalTape, ptr %34, i32 0, i32 14
  store i32 0, ptr %35, align 8
  %36 = load ptr, ptr %3, align 8
  %37 = getelementptr inbounds nuw %struct.LogicalTape, ptr %36, i32 0, i32 15
  store i32 0, ptr %37, align 4
  %38 = load ptr, ptr %3, align 8
  call void @llvm.lifetime.end.p0(i64 8, ptr %3) #7
  ret ptr %38
}

; Function Attrs: nounwind uwtable
define dso_local ptr @LogicalTapeCreate(ptr noundef %0) #0 {
  %2 = alloca ptr, align 8
  store ptr %0, ptr %2, align 8
  %3 = load ptr, ptr %2, align 8
  %4 = getelementptr inbounds nuw %struct.LogicalTapeSet, ptr %3, i32 0, i32 1
  %5 = load ptr, ptr %4, align 8
  %6 = icmp ne ptr %5, null
  br i1 %6, label %7, label %22

7:                                                ; preds = %1
  %8 = load ptr, ptr %2, align 8
  %9 = getelementptr inbounds nuw %struct.LogicalTapeSet, ptr %8, i32 0, i32 2
  %10 = load i32, ptr %9, align 8
  %11 = icmp eq i32 %10, -1
  br i1 %11, label %12, label %22

12:                                               ; preds = %7
  br label %13

13:                                               ; preds = %12
  br i1 true, label %14, label %16

14:                                               ; preds = %13
  %15 = call zeroext i1 @errstart_cold(i32 noundef 21, ptr noundef null) #8
  br i1 %15, label %18, label %20

16:                                               ; preds = %13
  %17 = call zeroext i1 @errstart(i32 noundef 21, ptr noundef null)
  br i1 %17, label %18, label %20

18:                                               ; preds = %16, %14
  %19 = call i32 (ptr, ...) @errmsg_internal(ptr noundef @.str)
  call void @errfinish(ptr noundef @.str.1, i32 noundef 690, ptr noundef @__func__.LogicalTapeCreate)
  br label %20

20:                                               ; preds = %18, %16, %14
  unreachable

21:                                               ; No predecessors!
  br label %22

22:                                               ; preds = %21, %7, %1
  %23 = load ptr, ptr %2, align 8
  %24 = call ptr @ltsCreateTape(ptr noundef %23)
  ret ptr %24
}