; Function Attrs: nounwind uwtable
define dso_local noundef ptr @LogicalTapeCreate(ptr noundef %0) local_unnamed_addr #0 {
  %2 = getelementptr inbounds nuw i8, ptr %0, i64 8
  %3 = load ptr, ptr %2, align 8
  %.not = icmp eq ptr %3, null
  br i1 %.not, label %11, label %4

4:                                                ; preds = %1
  %5 = getelementptr inbounds nuw i8, ptr %0, i64 16
  %6 = load i32, ptr %5, align 8
  %7 = icmp eq i32 %6, -1
  br i1 %7, label %8, label %11

8:                                                ; preds = %4
  %9 = tail call zeroext i1 @errstart_cold(i32 noundef 21, ptr noundef null) #11
  tail call void @llvm.assume(i1 %9)
  %10 = tail call i32 (ptr, ...) @errmsg_internal(ptr noundef nonnull @.str) #10
  tail call void @errfinish(ptr noundef nonnull @.str.1, i32 noundef 690, ptr noundef nonnull @__func__.LogicalTapeCreate) #10
  unreachable

11:                                               ; preds = %4, %1
  %12 = tail call ptr @palloc(i64 noundef 88) #10
  store ptr %0, ptr %12, align 8
  %13 = getelementptr inbounds nuw i8, ptr %12, i64 8
  store i8 1, ptr %13, align 8
  %14 = getelementptr inbounds nuw i8, ptr %12, i64 9
  store i8 0, ptr %14, align 1
  %15 = getelementptr inbounds nuw i8, ptr %12, i64 10
  store i8 0, ptr %15, align 2
  %16 = getelementptr inbounds nuw i8, ptr %12, i64 16
  %17 = getelementptr inbounds nuw i8, ptr %12, i64 40
  tail call void @llvm.memset.p0.i64(ptr noundef nonnull align 8 dereferenceable(24) %16, i8 -1, i64 24, i1 false)
  %18 = getelementptr inbounds nuw i8, ptr %12, i64 60
  tail call void @llvm.memset.p0.i64(ptr noundef nonnull align 8 dereferenceable(20) %17, i8 0, i64 20, i1 false)
  store i32 1073741823, ptr %18, align 4
  %19 = getelementptr inbounds nuw i8, ptr %12, i64 64
  tail call void @llvm.memset.p0.i64(ptr noundef nonnull align 8 dereferenceable(24) %19, i8 0, i64 24, i1 false)
  ret ptr %12
}